; Function Attrs: mustprogress uwtable
define internal fastcc void @_ZNSt4pairIKNSt7__cxx1112basic_stringIcSt11char_traitsIcESaIcEEEN12_GLOBAL__N_110OptionEnumEEC2IRA28_KcS8_TnNSt9enable_ifIXaaclsr5_PCCPE22_MoveConstructiblePairIT_T0_EEclsr5_PCCPE30_ImplicitlyMoveConvertiblePairISF_SG_EEEbE4typeELb1EEEOSF_OSG_(ptr noundef nonnull align 8 dereferenceable(36) %this, ptr noundef nonnull align 1 dereferenceable(28) %__x, ptr nocapture noundef nonnull readonly align 4 dereferenceable(4) %__y) unnamed_addr #4 align 2 personality ptr @__gxx_personality_v0 {
entry:
  %ref.tmp = alloca %"class.std::allocator.2", align 1
  call void @_ZNSaIcEC1Ev(ptr noundef nonnull align 1 dereferenceable(1) %ref.tmp) #21
  %call.i1 = invoke noundef ptr @_ZNSt7__cxx1112basic_stringIcSt11char_traitsIcESaIcEE13_M_local_dataEv(ptr noundef nonnull align 8 dereferenceable(32) %this)
          to label %call.i.noexc unwind label %lpad

call.i.noexc:                                     ; preds = %entry
  invoke void @_ZNSt7__cxx1112basic_stringIcSt11char_traitsIcESaIcEE12_Alloc_hiderC1EPcRKS3_(ptr noundef nonnull align 8 dereferenceable(8) %this, ptr noundef %call.i1, ptr noundef nonnull align 1 dereferenceable(1) %ref.tmp)
          to label %.noexc unwind label %lpad

.noexc:                                           ; preds = %call.i.noexc
  %call.i.i = call noundef i64 @strlen(ptr noundef nonnull dereferenceable(1) %__x) #21
  %add.ptr.i = getelementptr inbounds i8, ptr %__x, i64 %call.i.i
  invoke void @_ZNSt7__cxx1112basic_stringIcSt11char_traitsIcESaIcEE12_M_constructIPKcEEvT_S8_St20forward_iterator_tag(ptr noundef nonnull align 8 dereferenceable(32) %this, ptr noundef nonnull %__x, ptr noundef nonnull %add.ptr.i)
          to label %invoke.cont unwind label %lpad.i

lpad.i:                                           ; preds = %.noexc
  %0 = landingpad { ptr, i32 }
          cleanup
  call void @_ZNSaIcED2Ev(ptr noundef nonnull align 1 dereferenceable(1) %this) #21
  br label %lpad.body

invoke.cont:                                      ; preds = %.noexc
  call void @_ZNSaIcED1Ev(ptr noundef nonnull align 1 dereferenceable(1) %ref.tmp) #21
  %second = getelementptr inbounds i8, ptr %this, i64 32
  %1 = load i32, ptr %__y, align 4
  store i32 %1, ptr %second, align 8
  ret void

lpad:                                             ; preds = %call.i.noexc, %entry
  %2 = landingpad { ptr, i32 }
          cleanup
  br label %lpad.body

lpad.body:                                        ; preds = %lpad.i, %lpad
  %eh.lpad-body = phi { ptr, i32 } [ %2, %lpad ], [ %0, %lpad.i ]
  call void @_ZNSaIcED1Ev(ptr noundef nonnull align 1 dereferenceable(1) %ref.tmp) #21
  resume { ptr, i32 } %eh.lpad-body
}